; Function Attrs: mustprogress uwtable
define void @_ZNK5arrow8FieldRef7FindAllERKNS_5FieldE(ptr dead_on_unwind noalias writable sret(%"class.std::vector.138") align 8 %0, ptr noundef nonnull align 8 dereferenceable(40) %1, ptr noundef nonnull readonly align 8 captures(none) dereferenceable(96) %2) local_unnamed_addr #1 align 2 {
  %4 = alloca %struct.Visitor.311, align 8
  %5 = getelementptr inbounds nuw i8, ptr %2, i64 56
  %6 = load ptr, ptr %5, align 8, !tbaa !333
  %7 = getelementptr inbounds nuw i8, ptr %6, i64 48
  call void @llvm.lifetime.start.p0(i64 8, ptr nonnull %4) #38, !noalias !1507
  store ptr %7, ptr %4, align 8, !tbaa !1498, !noalias !1507
  %8 = getelementptr inbounds nuw i8, ptr %1, i64 32
  %9 = load i8, ptr %8, align 8, !tbaa !1413, !noalias !1510
  %.not.i.i = icmp eq i8 %9, -1
  br i1 %.not.i.i, label %10, label %_ZNK5arrow8FieldRef7FindAllERKSt6vectorISt10shared_ptrINS_5FieldEESaIS4_EE.exit

10:                                               ; preds = %3
  %11 = tail call ptr @__cxa_allocate_exception(i64 16) #38, !noalias !1510
  store ptr getelementptr inbounds nuw inrange(-16, 24) (i8, ptr @_ZTVSt18bad_variant_access, i64 16), ptr %11, align 8, !tbaa !330, !noalias !1510
  %12 = getelementptr inbounds nuw i8, ptr %11, i64 8
  store ptr @.str.216, ptr %12, align 8, !tbaa !1424, !noalias !1510
  tail call void @__cxa_throw(ptr nonnull %11, ptr nonnull @_ZTISt18bad_variant_access, ptr nonnull @_ZNSt9exceptionD2Ev) #40, !noalias !1510
  unreachable

_ZNK5arrow8FieldRef7FindAllERKSt6vectorISt10shared_ptrINS_5FieldEESaIS4_EE.exit: ; preds = %3
  call fastcc void @_ZSt10__do_visitINSt8__detail9__variant21__deduce_visit_resultISt6vectorIN5arrow9FieldPathESaIS5_EEEEZNKS4_8FieldRef7FindAllERKS3_ISt10shared_ptrINS4_5FieldEESaISC_EEE7VisitorJRKSt7variantIJS5_NSt7__cxx1112basic_stringIcSt11char_traitsIcESaIcEEES3_IS9_SaIS9_EEEEEEDcOT0_DpOT1_(ptr dead_on_unwind noalias writable align 8 %0, ptr noundef nonnull align 8 dereferenceable(8) %4, ptr noundef nonnull align 8 dereferenceable(40) %1)
  call void @llvm.lifetime.end.p0(i64 8, ptr nonnull %4) #38, !noalias !1507
  ret void
}